target datalayout = "e-m:e-p270:32:32-p271:32:32-p272:64:64-i64:64-i128:128-f80:128-n8:16:32:64-S128"
target triple = "x86_64-pc-linux-gnu"

%struct._typeobject = type { %struct.PyVarObject, ptr, i64, i64, ptr, i64, ptr, ptr, ptr, ptr, ptr, ptr, ptr, ptr, ptr, ptr, ptr, ptr, ptr, i64, ptr, ptr, ptr, ptr, i64, ptr, ptr, ptr, ptr, ptr, ptr, ptr, ptr, ptr, i64, ptr, ptr, ptr, ptr, ptr, ptr, ptr, ptr, ptr, ptr, ptr, i32, ptr, ptr, i8, i16 }
%struct.PyVarObject = type { %struct._object, i64 }
%struct._object = type { %union.anon, ptr }
%union.anon = type { i64 }
%struct._Py_ext_module_loader_info = type { ptr, ptr, ptr, ptr, ptr, i32, ptr, ptr }
%struct.anon = type { i32, i32 }
%struct._Py_ext_module_loader_result = type { ptr, ptr, i32, ptr, %struct._Py_ext_module_loader_result_error }
%struct._Py_ext_module_loader_result_error = type { i32, ptr }
%struct.PyModuleObject = type { %struct._object, ptr, ptr, ptr, ptr, ptr }

@PyModuleDef_Type = external global %struct._typeobject, align 8
@.str.14 = private unnamed_addr constant [8 x i8] c"PyInitU\00", align 1
@PyModule_Type = external global %struct._typeobject, align 8

; Function Attrs: alwaysinline nounwind uwtable
define internal i32 @_Py_IsImmortal(ptr noundef %0) #2 {
  %2 = alloca ptr, align 8
  store ptr %0, ptr %2, align 8, !tbaa !11
  %3 = load ptr, ptr %2, align 8, !tbaa !11
  %4 = getelementptr inbounds nuw %struct._object, ptr %3, i32 0, i32 0
  %5 = getelementptr inbounds nuw %struct.anon, ptr %4, i32 0, i32 0
  %6 = load i32, ptr %5, align 8, !tbaa !13
  %7 = icmp slt i32 %6, 0
  %8 = zext i1 %7 to i32
  ret i32 %8
}

; Function Attrs: inlinehint nounwind uwtable
define internal ptr @_Py_TYPE(ptr noundef %0) #4 {
  %2 = alloca ptr, align 8
  store ptr %0, ptr %2, align 8, !tbaa !11
  %3 = load ptr, ptr %2, align 8, !tbaa !11
  %4 = getelementptr inbounds nuw %struct._object, ptr %3, i32 0, i32 1
  %5 = load ptr, ptr %4, align 8, !tbaa !39
  ret ptr %5
}

; Function Attrs: alwaysinline nounwind uwtable
define internal void @Py_DECREF(ptr noundef %0) #2 {
  %2 = alloca ptr, align 8
  store ptr %0, ptr %2, align 8, !tbaa !11
  %3 = load ptr, ptr %2, align 8, !tbaa !11
  %4 = call i32 @_Py_IsImmortal(ptr noundef %3)
  %5 = icmp ne i32 %4, 0
  br i1 %5, label %6, label %7

6:                                                ; preds = %1
  br label %16

7:                                                ; preds = %1
  %8 = load ptr, ptr %2, align 8, !tbaa !11
  %9 = getelementptr inbounds nuw %struct._object, ptr %8, i32 0, i32 0
  %10 = getelementptr inbounds nuw %struct.anon, ptr %9, i32 0, i32 0
  %11 = load i32, ptr %10, align 8, !tbaa !13
  %12 = add i32 %11, -1
  store i32 %12, ptr %10, align 8, !tbaa !13
  %13 = icmp eq i32 %12, 0
  br i1 %13, label %14, label %16

14:                                               ; preds = %7
  %15 = load ptr, ptr %2, align 8, !tbaa !11
  call void @_Py_Dealloc(ptr noundef %15)
  br label %16

16:                                               ; preds = %6, %14, %7
  ret void
}

; Function Attrs: inlinehint nounwind uwtable
define internal ptr @_PyModule_GetDef(ptr noundef %0) #4 {
  %2 = alloca ptr, align 8
  store ptr %0, ptr %2, align 8, !tbaa !11
  %3 = load ptr, ptr %2, align 8, !tbaa !11
  %4 = getelementptr inbounds nuw %struct.PyModuleObject, ptr %3, i32 0, i32 2
  %5 = load ptr, ptr %4, align 8, !tbaa !62
  ret ptr %5
}

; Function Attrs: inlinehint nounwind uwtable
define internal i32 @PyObject_TypeCheck(ptr noundef %0, ptr noundef %1) #4 {
  %3 = alloca ptr, align 8
  %4 = alloca ptr, align 8
  store ptr %0, ptr %3, align 8, !tbaa !11
  store ptr %1, ptr %4, align 8, !tbaa !27
  %5 = load ptr, ptr %3, align 8, !tbaa !11
  %6 = load ptr, ptr %4, align 8, !tbaa !27
  %7 = call i32 @Py_IS_TYPE(ptr noundef %5, ptr noundef %6)
  %8 = icmp ne i32 %7, 0
  br i1 %8, label %15, label %9

9:                                                ; preds = %2
  %10 = load ptr, ptr %3, align 8, !tbaa !11
  %11 = call ptr @_Py_TYPE(ptr noundef %10)
  %12 = load ptr, ptr %4, align 8, !tbaa !27
  %13 = call i32 @PyType_IsSubtype(ptr noundef %11, ptr noundef %12)
  %14 = icmp ne i32 %13, 0
  br label %15

15:                                               ; preds = %9, %2
  %16 = phi i1 [ true, %2 ], [ %14, %9 ]
  %17 = zext i1 %16 to i32
  ret i32 %17
}

; Function Attrs: inlinehint nounwind uwtable
define internal i32 @Py_IS_TYPE(ptr noundef %0, ptr noundef %1) #4 {
  %3 = alloca ptr, align 8
  %4 = alloca ptr, align 8
  store ptr %0, ptr %3, align 8, !tbaa !11
  store ptr %1, ptr %4, align 8, !tbaa !27
  %5 = load ptr, ptr %3, align 8, !tbaa !11
  %6 = call ptr @_Py_TYPE(ptr noundef %5)
  %7 = load ptr, ptr %4, align 8, !tbaa !27
  %8 = icmp eq ptr %6, %7
  %9 = zext i1 %8 to i32
  ret i32 %9
}

; Function Attrs: nounwind uwtable
define internal void @_Py_ext_module_loader_result_set_error(ptr noundef %0, i32 noundef %1) #0 {
  %3 = alloca ptr, align 8
  %4 = alloca i32, align 4
  %5 = alloca %struct._Py_ext_module_loader_result_error, align 8
  store ptr %0, ptr %3, align 8, !tbaa !43
  store i32 %1, ptr %4, align 4, !tbaa !14
  %6 = load ptr, ptr %3, align 8, !tbaa !43
  %7 = getelementptr inbounds nuw %struct._Py_ext_module_loader_result, ptr %6, i32 0, i32 4
  %8 = load ptr, ptr %3, align 8, !tbaa !43
  %9 = getelementptr inbounds nuw %struct._Py_ext_module_loader_result, ptr %8, i32 0, i32 3
  store ptr %7, ptr %9, align 8, !tbaa !50
  %10 = load ptr, ptr %3, align 8, !tbaa !43
  %11 = getelementptr inbounds nuw %struct._Py_ext_module_loader_result, ptr %10, i32 0, i32 3
  %12 = load ptr, ptr %11, align 8, !tbaa !50
  %13 = getelementptr inbounds nuw %struct._Py_ext_module_loader_result_error, ptr %5, i32 0, i32 0
  %14 = load i32, ptr %4, align 4, !tbaa !14
  store i32 %14, ptr %13, align 8, !tbaa !54
  %15 = getelementptr i8, ptr %5, i64 4
  call void @llvm.memset.p0.i64(ptr align 4 %15, i8 0, i64 4, i1 false)
  %16 = getelementptr inbounds nuw %struct._Py_ext_module_loader_result_error, ptr %5, i32 0, i32 1
  %17 = call ptr @PyErr_GetRaisedException()
  store ptr %17, ptr %16, align 8, !tbaa !55
  call void @llvm.memcpy.p0.p0.i64(ptr align 8 %12, ptr align 8 %5, i64 16, i1 false), !tbaa.struct !53
  %18 = load i32, ptr %4, align 4, !tbaa !14
  switch i32 %18, label %27 [
    i32 3, label %19
    i32 0, label %22
    i32 1, label %23
    i32 2, label %24
    i32 4, label %25
    i32 5, label %26
    i32 6, label %28
  ]

19:                                               ; preds = %2
  %20 = load ptr, ptr %3, align 8, !tbaa !43
  %21 = getelementptr inbounds nuw %struct._Py_ext_module_loader_result, ptr %20, i32 0, i32 2
  store i32 3, ptr %21, align 8, !tbaa !59
  br label %28

22:                                               ; preds = %2
  br label %23

23:                                               ; preds = %2, %22
  br label %24

24:                                               ; preds = %2, %23
  br label %25

25:                                               ; preds = %2, %24
  br label %26

26:                                               ; preds = %2, %25
  br label %28

27:                                               ; preds = %2
  br label %28

28:                                               ; preds = %27, %26, %2, %19
  ret void
}

; Function Attrs: nounwind uwtable
define hidden i32 @_PyImport_RunModInitFunc(ptr noundef %0, ptr noundef %1, ptr noundef %2) #0 {
  %4 = alloca i32, align 4
  %5 = alloca ptr, align 8
  %6 = alloca ptr, align 8
  %7 = alloca ptr, align 8
  %8 = alloca %struct._Py_ext_module_loader_result, align 8
  %9 = alloca ptr, align 8
  %10 = alloca ptr, align 8
  %11 = alloca i32, align 4
  %12 = alloca ptr, align 8
  %13 = alloca ptr, align 8
  store ptr %0, ptr %5, align 8, !tbaa !58
  store ptr %1, ptr %6, align 8, !tbaa !4
  store ptr %2, ptr %7, align 8, !tbaa !43
  call void @llvm.lifetime.start.p0(i64 48, ptr %8) #7
  call void @llvm.memset.p0.i64(ptr align 8 %8, i8 0, i64 48, i1 false)
  call void @llvm.lifetime.start.p0(i64 8, ptr %9) #7
  %14 = load ptr, ptr %6, align 8, !tbaa !4
  %15 = getelementptr inbounds nuw %struct._Py_ext_module_loader_info, ptr %14, i32 0, i32 7
  %16 = load ptr, ptr %15, align 8, !tbaa !21
  %17 = call ptr @_PyImport_SwapPackageContext(ptr noundef %16)
  store ptr %17, ptr %9, align 8, !tbaa !26
  call void @llvm.lifetime.start.p0(i64 8, ptr %10) #7
  %18 = load ptr, ptr %5, align 8, !tbaa !58
  %19 = call ptr %18()
  store ptr %19, ptr %10, align 8, !tbaa !11
  %20 = load ptr, ptr %9, align 8, !tbaa !26
  %21 = call ptr @_PyImport_SwapPackageContext(ptr noundef %20)
  %22 = load ptr, ptr %10, align 8, !tbaa !11
  %23 = icmp eq ptr %22, null
  br i1 %23, label %24, label %31

24:                                               ; preds = %3
  %25 = getelementptr inbounds nuw %struct._Py_ext_module_loader_result, ptr %8, i32 0, i32 2
  store i32 1, ptr %25, align 8, !tbaa !59
  %26 = call ptr @PyErr_Occurred()
  %27 = icmp ne ptr %26, null
  br i1 %27, label %28, label %29

28:                                               ; preds = %24
  call void @_Py_ext_module_loader_result_set_error(ptr noundef %8, i32 noundef 0)
  br label %30

29:                                               ; preds = %24
  call void @_Py_ext_module_loader_result_set_error(ptr noundef %8, i32 noundef 1)
  br label %30

30:                                               ; preds = %29, %28
  br label %77

31:                                               ; preds = %3
  %32 = call ptr @PyErr_Occurred()
  %33 = icmp ne ptr %32, null
  br i1 %33, label %34, label %36

34:                                               ; preds = %31
  %35 = getelementptr inbounds nuw %struct._Py_ext_module_loader_result, ptr %8, i32 0, i32 2
  store i32 1, ptr %35, align 8, !tbaa !59
  call void @_Py_ext_module_loader_result_set_error(ptr noundef %8, i32 noundef 2)
  store ptr null, ptr %10, align 8, !tbaa !11
  br label %77

36:                                               ; preds = %31
  br label %37

37:                                               ; preds = %36
  %38 = load ptr, ptr %10, align 8, !tbaa !11
  %39 = call i32 @Py_IS_TYPE(ptr noundef %38, ptr noundef null)
  %40 = icmp ne i32 %39, 0
  br i1 %40, label %41, label %42

41:                                               ; preds = %37
  call void @_Py_ext_module_loader_result_set_error(ptr noundef %8, i32 noundef 3)
  store ptr null, ptr %10, align 8, !tbaa !11
  br label %77

42:                                               ; preds = %37
  %43 = load ptr, ptr %10, align 8, !tbaa !11
  %44 = call i32 @PyObject_TypeCheck(ptr noundef %43, ptr noundef @PyModuleDef_Type)
  %45 = icmp ne i32 %44, 0
  br i1 %45, label %46, label %50

46:                                               ; preds = %42
  %47 = getelementptr inbounds nuw %struct._Py_ext_module_loader_result, ptr %8, i32 0, i32 2
  store i32 2, ptr %47, align 8, !tbaa !59
  %48 = load ptr, ptr %10, align 8, !tbaa !11
  %49 = getelementptr inbounds nuw %struct._Py_ext_module_loader_result, ptr %8, i32 0, i32 0
  store ptr %48, ptr %49, align 8, !tbaa !60
  br label %75

50:                                               ; preds = %42
  %51 = load ptr, ptr %6, align 8, !tbaa !4
  %52 = getelementptr inbounds nuw %struct._Py_ext_module_loader_info, ptr %51, i32 0, i32 6
  %53 = load ptr, ptr %52, align 8, !tbaa !42
  %54 = icmp eq ptr %53, @.str.14
  br i1 %54, label %55, label %57

55:                                               ; preds = %50
  %56 = getelementptr inbounds nuw %struct._Py_ext_module_loader_result, ptr %8, i32 0, i32 2
  store i32 2, ptr %56, align 8, !tbaa !59
  call void @_Py_ext_module_loader_result_set_error(ptr noundef %8, i32 noundef 4)
  br label %77

57:                                               ; preds = %50
  %58 = getelementptr inbounds nuw %struct._Py_ext_module_loader_result, ptr %8, i32 0, i32 2
  store i32 1, ptr %58, align 8, !tbaa !59
  %59 = load ptr, ptr %10, align 8, !tbaa !11
  %60 = getelementptr inbounds nuw %struct._Py_ext_module_loader_result, ptr %8, i32 0, i32 1
  store ptr %59, ptr %60, align 8, !tbaa !61
  %61 = load ptr, ptr %10, align 8, !tbaa !11
  %62 = call i32 @PyObject_TypeCheck(ptr noundef %61, ptr noundef @PyModule_Type)
  %63 = icmp ne i32 %62, 0
  br i1 %63, label %65, label %64

64:                                               ; preds = %57
  call void @_Py_ext_module_loader_result_set_error(ptr noundef %8, i32 noundef 5)
  br label %77

65:                                               ; preds = %57
  %66 = load ptr, ptr %10, align 8, !tbaa !11
  %67 = call ptr @_PyModule_GetDef(ptr noundef %66)
  %68 = getelementptr inbounds nuw %struct._Py_ext_module_loader_result, ptr %8, i32 0, i32 0
  store ptr %67, ptr %68, align 8, !tbaa !60
  %69 = getelementptr inbounds nuw %struct._Py_ext_module_loader_result, ptr %8, i32 0, i32 0
  %70 = load ptr, ptr %69, align 8, !tbaa !60
  %71 = icmp eq ptr %70, null
  br i1 %71, label %72, label %73

72:                                               ; preds = %65
  call void @PyErr_Clear()
  call void @_Py_ext_module_loader_result_set_error(ptr noundef %8, i32 noundef 6)
  br label %77

73:                                               ; preds = %65
  br label %74

74:                                               ; preds = %73
  br label %75

75:                                               ; preds = %74, %46
  %76 = load ptr, ptr %7, align 8, !tbaa !43
  call void @llvm.memcpy.p0.p0.i64(ptr align 8 %76, ptr align 8 %8, i64 48, i1 false), !tbaa.struct !45
  store i32 0, ptr %4, align 4
  store i32 1, ptr %11, align 4
  br label %96

77:                                               ; preds = %72, %64, %55, %41, %34, %30
  br label %78

78:                                               ; preds = %77
  call void @llvm.lifetime.start.p0(i64 8, ptr %12) #7
  %79 = getelementptr inbounds nuw %struct._Py_ext_module_loader_result, ptr %8, i32 0, i32 1
  store ptr %79, ptr %12, align 8, !tbaa !9
  call void @llvm.lifetime.start.p0(i64 8, ptr %13) #7
  %80 = load ptr, ptr %12, align 8, !tbaa !9
  %81 = load ptr, ptr %80, align 8, !tbaa !11
  store ptr %81, ptr %13, align 8, !tbaa !11
  %82 = load ptr, ptr %13, align 8, !tbaa !11
  %83 = icmp ne ptr %82, null
  br i1 %83, label %84, label %87

84:                                               ; preds = %78
  %85 = load ptr, ptr %12, align 8, !tbaa !9
  store ptr null, ptr %85, align 8, !tbaa !11
  %86 = load ptr, ptr %13, align 8, !tbaa !11
  call void @Py_DECREF(ptr noundef %86)
  br label %87

87:                                               ; preds = %84, %78
  call void @llvm.lifetime.end.p0(i64 8, ptr %13) #7
  call void @llvm.lifetime.end.p0(i64 8, ptr %12) #7
  br label %88

88:                                               ; preds = %87
  br label %89

89:                                               ; preds = %88
  %90 = getelementptr inbounds nuw %struct._Py_ext_module_loader_result, ptr %8, i32 0, i32 0
  store ptr null, ptr %90, align 8, !tbaa !60
  %91 = load ptr, ptr %7, align 8, !tbaa !43
  call void @llvm.memcpy.p0.p0.i64(ptr align 8 %91, ptr align 8 %8, i64 48, i1 false), !tbaa.struct !45
  %92 = load ptr, ptr %7, align 8, !tbaa !43
  %93 = getelementptr inbounds nuw %struct._Py_ext_module_loader_result, ptr %92, i32 0, i32 4
  %94 = load ptr, ptr %7, align 8, !tbaa !43
  %95 = getelementptr inbounds nuw %struct._Py_ext_module_loader_result, ptr %94, i32 0, i32 3
  store ptr %93, ptr %95, align 8, !tbaa !50
  store i32 -1, ptr %4, align 4
  store i32 1, ptr %11, align 4
  br label %96

96:                                               ; preds = %89, %75
  call void @llvm.lifetime.end.p0(i64 8, ptr %10) #7
  call void @llvm.lifetime.end.p0(i64 8, ptr %9) #7
  call void @llvm.lifetime.end.p0(i64 48, ptr %8) #7
  %97 = load i32, ptr %4, align 4
  ret i32 %97
}