; Function Attrs: nounwind uwtable
define hidden range(i32 -1, 1) i32 @_PyImport_RunModInitFunc(ptr noundef readonly captures(none) %0, ptr noundef readonly captures(none) %1, ptr noundef initializes((0, 48)) %2) local_unnamed_addr #0 {
  %4 = alloca %struct._Py_ext_module_loader_result, align 8
  call void @llvm.lifetime.start.p0(i64 48, ptr nonnull %4) #6
  call void @llvm.memset.p0.i64(ptr noundef nonnull align 8 dereferenceable(48) %4, i8 0, i64 48, i1 false)
  %5 = getelementptr inbounds nuw i8, ptr %1, i64 56
  %6 = load ptr, ptr %5, align 8, !tbaa !28
  %7 = tail call ptr @_PyImport_SwapPackageContext(ptr noundef %6) #6
  %8 = tail call ptr %0() #6
  %9 = tail call ptr @_PyImport_SwapPackageContext(ptr noundef %7) #6
  %10 = icmp eq ptr %8, null
  br i1 %10, label %11, label %19

11:                                               ; preds = %3
  %12 = getelementptr inbounds nuw i8, ptr %4, i64 16
  store i32 1, ptr %12, align 8, !tbaa !40
  %13 = tail call ptr @PyErr_Occurred() #6
  %.not24 = icmp eq ptr %13, null
  %14 = getelementptr inbounds nuw i8, ptr %4, i64 32
  %15 = getelementptr inbounds nuw i8, ptr %4, i64 24
  store ptr %14, ptr %15, align 8, !tbaa !34
  %16 = call ptr @PyErr_GetRaisedException() #6
  %.sroa.2.0..sroa_idx.i29 = getelementptr inbounds nuw i8, ptr %4, i64 36
  %.sroa.3.0..sroa_idx.i30 = getelementptr inbounds nuw i8, ptr %4, i64 40
  br i1 %.not24, label %18, label %17

17:                                               ; preds = %11
  store i32 0, ptr %14, align 8, !tbaa !33
  store i32 0, ptr %.sroa.2.0..sroa_idx.i29, align 4
  store ptr %16, ptr %.sroa.3.0..sroa_idx.i30, align 8, !tbaa !4
  br label %59

18:                                               ; preds = %11
  store i32 1, ptr %14, align 8, !tbaa !33
  store i32 0, ptr %.sroa.2.0..sroa_idx.i29, align 4
  store ptr %16, ptr %.sroa.3.0..sroa_idx.i30, align 8, !tbaa !4
  br label %59

19:                                               ; preds = %3
  %20 = tail call ptr @PyErr_Occurred() #6
  %.not = icmp eq ptr %20, null
  br i1 %.not, label %26, label %21

21:                                               ; preds = %19
  %22 = getelementptr inbounds nuw i8, ptr %4, i64 16
  store i32 1, ptr %22, align 8, !tbaa !40
  %23 = getelementptr inbounds nuw i8, ptr %4, i64 32
  %24 = getelementptr inbounds nuw i8, ptr %4, i64 24
  store ptr %23, ptr %24, align 8, !tbaa !34
  %25 = call ptr @PyErr_GetRaisedException() #6
  store i32 2, ptr %23, align 8, !tbaa !33
  %.sroa.2.0..sroa_idx.i31 = getelementptr inbounds nuw i8, ptr %4, i64 36
  store i32 0, ptr %.sroa.2.0..sroa_idx.i31, align 4
  %.sroa.3.0..sroa_idx.i32 = getelementptr inbounds nuw i8, ptr %4, i64 40
  store ptr %25, ptr %.sroa.3.0..sroa_idx.i32, align 8, !tbaa !4
  br label %59

26:                                               ; preds = %19
  %27 = getelementptr i8, ptr %8, i64 8
  %.val = load ptr, ptr %27, align 8, !tbaa !14
  %.not46 = icmp eq ptr %.val, null
  br i1 %.not46, label %28, label %33

28:                                               ; preds = %26
  %29 = getelementptr inbounds nuw i8, ptr %4, i64 32
  %30 = getelementptr inbounds nuw i8, ptr %4, i64 24
  store ptr %29, ptr %30, align 8, !tbaa !34
  %31 = call ptr @PyErr_GetRaisedException() #6
  store i32 3, ptr %29, align 8, !tbaa !33
  %.sroa.2.0..sroa_idx.i33 = getelementptr inbounds nuw i8, ptr %4, i64 36
  store i32 0, ptr %.sroa.2.0..sroa_idx.i33, align 4
  %.sroa.3.0..sroa_idx.i34 = getelementptr inbounds nuw i8, ptr %4, i64 40
  store ptr %31, ptr %.sroa.3.0..sroa_idx.i34, align 8, !tbaa !4
  %32 = getelementptr inbounds nuw i8, ptr %4, i64 16
  store i32 3, ptr %32, align 8, !tbaa !40
  br label %59

33:                                               ; preds = %26
  %.not.i35 = icmp eq ptr %.val, @PyModuleDef_Type
  br i1 %.not.i35, label %PyObject_TypeCheck.exit.thread, label %PyObject_TypeCheck.exit

PyObject_TypeCheck.exit:                          ; preds = %33
  %34 = tail call i32 @PyType_IsSubtype(ptr noundef nonnull %.val, ptr noundef nonnull @PyModuleDef_Type) #6
  %.not47 = icmp eq i32 %34, 0
  br i1 %.not47, label %36, label %PyObject_TypeCheck.exit.thread

PyObject_TypeCheck.exit.thread:                   ; preds = %33, %PyObject_TypeCheck.exit
  %35 = getelementptr inbounds nuw i8, ptr %4, i64 16
  store i32 2, ptr %35, align 8, !tbaa !40
  store ptr %8, ptr %4, align 8, !tbaa !41
  br label %58

36:                                               ; preds = %PyObject_TypeCheck.exit
  %37 = getelementptr inbounds nuw i8, ptr %1, i64 48
  %38 = load ptr, ptr %37, align 8, !tbaa !39
  %39 = icmp eq ptr %38, @.str.14
  %40 = getelementptr inbounds nuw i8, ptr %4, i64 16
  br i1 %39, label %41, label %45

41:                                               ; preds = %36
  store i32 2, ptr %40, align 8, !tbaa !40
  %42 = getelementptr inbounds nuw i8, ptr %4, i64 32
  %43 = getelementptr inbounds nuw i8, ptr %4, i64 24
  store ptr %42, ptr %43, align 8, !tbaa !34
  %44 = call ptr @PyErr_GetRaisedException() #6
  store i32 4, ptr %42, align 8, !tbaa !33
  %.sroa.2.0..sroa_idx.i36 = getelementptr inbounds nuw i8, ptr %4, i64 36
  store i32 0, ptr %.sroa.2.0..sroa_idx.i36, align 4
  %.sroa.3.0..sroa_idx.i37 = getelementptr inbounds nuw i8, ptr %4, i64 40
  store ptr %44, ptr %.sroa.3.0..sroa_idx.i37, align 8, !tbaa !4
  br label %59

45:                                               ; preds = %36
  store i32 1, ptr %40, align 8, !tbaa !40
  %46 = getelementptr inbounds nuw i8, ptr %4, i64 8
  store ptr %8, ptr %46, align 8, !tbaa !42
  %.val27 = load ptr, ptr %27, align 8, !tbaa !14
  %.not.i38 = icmp eq ptr %.val27, @PyModule_Type
  br i1 %.not.i38, label %PyObject_TypeCheck.exit39.thread, label %PyObject_TypeCheck.exit39

PyObject_TypeCheck.exit39:                        ; preds = %45
  %47 = tail call i32 @PyType_IsSubtype(ptr noundef %.val27, ptr noundef nonnull @PyModule_Type) #6
  %.not48 = icmp eq i32 %47, 0
  br i1 %.not48, label %48, label %PyObject_TypeCheck.exit39.thread

48:                                               ; preds = %PyObject_TypeCheck.exit39
  %49 = getelementptr inbounds nuw i8, ptr %4, i64 32
  %50 = getelementptr inbounds nuw i8, ptr %4, i64 24
  store ptr %49, ptr %50, align 8, !tbaa !34
  %51 = call ptr @PyErr_GetRaisedException() #6
  store i32 5, ptr %49, align 8, !tbaa !33
  %.sroa.2.0..sroa_idx.i40 = getelementptr inbounds nuw i8, ptr %4, i64 36
  store i32 0, ptr %.sroa.2.0..sroa_idx.i40, align 4
  %.sroa.3.0..sroa_idx.i41 = getelementptr inbounds nuw i8, ptr %4, i64 40
  store ptr %51, ptr %.sroa.3.0..sroa_idx.i41, align 8, !tbaa !4
  br label %59

PyObject_TypeCheck.exit39.thread:                 ; preds = %45, %PyObject_TypeCheck.exit39
  %52 = getelementptr i8, ptr %8, i64 24
  %.val28 = load ptr, ptr %52, align 8, !tbaa !43
  store ptr %.val28, ptr %4, align 8, !tbaa !41
  %53 = icmp eq ptr %.val28, null
  br i1 %53, label %54, label %58

54:                                               ; preds = %PyObject_TypeCheck.exit39.thread
  tail call void @PyErr_Clear() #6
  %55 = getelementptr inbounds nuw i8, ptr %4, i64 32
  %56 = getelementptr inbounds nuw i8, ptr %4, i64 24
  store ptr %55, ptr %56, align 8, !tbaa !34
  %57 = call ptr @PyErr_GetRaisedException() #6
  store i32 6, ptr %55, align 8, !tbaa !33
  %.sroa.2.0..sroa_idx.i42 = getelementptr inbounds nuw i8, ptr %4, i64 36
  store i32 0, ptr %.sroa.2.0..sroa_idx.i42, align 4
  %.sroa.3.0..sroa_idx.i43 = getelementptr inbounds nuw i8, ptr %4, i64 40
  store ptr %57, ptr %.sroa.3.0..sroa_idx.i43, align 8, !tbaa !4
  br label %59

58:                                               ; preds = %PyObject_TypeCheck.exit39.thread, %PyObject_TypeCheck.exit.thread
  call void @llvm.memcpy.p0.p0.i64(ptr noundef nonnull align 8 dereferenceable(48) %2, ptr noundef nonnull align 8 dereferenceable(48) %4, i64 48, i1 false), !tbaa.struct !45
  br label %70

59:                                               ; preds = %21, %28, %41, %48, %54, %18, %17
  %60 = getelementptr inbounds nuw i8, ptr %4, i64 8
  %61 = load ptr, ptr %60, align 8, !tbaa !4
  %.not25 = icmp eq ptr %61, null
  br i1 %.not25, label %Py_DECREF.exit, label %62

62:                                               ; preds = %59
  store ptr null, ptr %60, align 8, !tbaa !4
  %63 = load i32, ptr %61, align 8, !tbaa !9
  %.not.i = icmp sgt i32 %63, -1
  br i1 %.not.i, label %64, label %Py_DECREF.exit

64:                                               ; preds = %62
  %65 = add nsw i32 %63, -1
  store i32 %65, ptr %61, align 8, !tbaa !9
  %66 = icmp eq i32 %65, 0
  br i1 %66, label %67, label %Py_DECREF.exit

67:                                               ; preds = %64
  call void @_Py_Dealloc(ptr noundef nonnull %61) #6
  br label %Py_DECREF.exit

Py_DECREF.exit:                                   ; preds = %67, %64, %62, %59
  store ptr null, ptr %4, align 8, !tbaa !41
  call void @llvm.memcpy.p0.p0.i64(ptr noundef nonnull align 8 dereferenceable(48) %2, ptr noundef nonnull align 8 dereferenceable(48) %4, i64 48, i1 false), !tbaa.struct !45
  %68 = getelementptr inbounds nuw i8, ptr %2, i64 32
  %69 = getelementptr inbounds nuw i8, ptr %2, i64 24
  store ptr %68, ptr %69, align 8, !tbaa !34
  br label %70

70:                                               ; preds = %Py_DECREF.exit, %58
  %.0 = phi i32 [ -1, %Py_DECREF.exit ], [ 0, %58 ]
  call void @llvm.lifetime.end.p0(i64 48, ptr nonnull %4) #6
  ret i32 %.0
}